target datalayout = "e-m:e-p270:32:32-p271:32:32-p272:64:64-i64:64-i128:128-f80:128-n8:16:32:64-S128"
target triple = "x86_64-pc-linux-gnu"

%class.params_ref = type { ptr }
%"class.sls::seq_plugin" = type { %"class.sls::plugin.base", %class.seq_util, %class.arith_util, %class.seq_rewriter, %class.th_rewriter, %class.scoped_ptr_vector, %class.indexed_uint_set, i8, i32, %class.vector.6, %class.vector.7, %class.svector.8 }
%"class.sls::plugin.base" = type <{ ptr, ptr, ptr, i32 }>
%class.seq_util = type { ptr, ptr, ptr, i32, [4 x i8], %"class.seq_util::str", %"class.seq_util::rex" }
%"class.seq_util::str" = type <{ ptr, ptr, i32, [4 x i8] }>
%"class.seq_util::rex" = type { ptr, ptr, i32, %class.vector, %class.ref_vector, %"struct.seq_util::rex::info", %"struct.seq_util::rex::info" }
%class.vector = type { ptr }
%class.ref_vector = type { %class.ref_vector_core }
%class.ref_vector_core = type { %class.ref_manager_wrapper, %class.ptr_vector }
%class.ref_manager_wrapper = type { ptr }
%class.ptr_vector = type { %class.vector.0 }
%class.vector.0 = type { ptr }
%"struct.seq_util::rex::info" = type { i32, i8, i32, i32 }
%class.arith_util = type { ptr, ptr }
%class.seq_rewriter = type <{ %class.seq_util, %class.arith_util, %class.bool_rewriter, %class.re2automaton, %"class.seq_rewriter::op_cache", %class.ref_vector, %class.ref_vector, %class.ref_vector, i8, [7 x i8] }>
%class.bool_rewriter = type { ptr, i8, i8, i8, i8, i8, i8, i32, i8, i32, i32, i8, %class.ptr_vector, %class.ptr_vector, %class.svector, %class.svector }
%class.svector = type { %class.vector.1 }
%class.vector.1 = type { ptr }
%class.re2automaton = type { ptr, [8 x i8], %class.seq_util, %class.scoped_ptr, %class.scoped_ptr.2, %class.scoped_ptr.3 }
%class.scoped_ptr = type { ptr }
%class.scoped_ptr.2 = type { ptr }
%class.scoped_ptr.3 = type { ptr }
%"class.seq_rewriter::op_cache" = type { i32, %class.ref_vector, %class.hashtable }
%class.hashtable = type { %class.core_hashtable.base, [4 x i8] }
%class.core_hashtable.base = type <{ ptr, i32, i32, i32 }>
%class.th_rewriter = type { ptr, %class.params_ref }
%class.scoped_ptr_vector = type { %class.ptr_vector.4 }
%class.ptr_vector.4 = type { %class.vector.5 }
%class.vector.5 = type { ptr }
%class.indexed_uint_set = type { i32, %class.svector, %class.svector }
%class.vector.6 = type { ptr }
%class.vector.7 = type { ptr }
%class.svector.8 = type { %class.vector.9 }
%class.vector.9 = type { ptr }
%"class.sls::plugin" = type <{ ptr, ptr, ptr, i32, [4 x i8] }>
%class.obj_ref = type { ptr, ptr }
%class.ast = type { i32, i32, i32, i32 }

; Function Attrs: mustprogress nounwind uwtable
define linkonce_odr hidden void @_ZN3ast7inc_refEv(ptr noundef nonnull align 4 dereferenceable(16) %0) #5 comdat align 2 {
  %2 = alloca ptr, align 8
  store ptr %0, ptr %2, align 8, !tbaa !182
  %3 = load ptr, ptr %2, align 8
  %4 = getelementptr inbounds nuw %class.ast, ptr %3, i32 0, i32 2
  %5 = load i32, ptr %4, align 4, !tbaa !375
  %6 = add i32 %5, 1
  store i32 %6, ptr %4, align 4, !tbaa !375
  ret void
}

; Function Attrs: mustprogress uwtable
define linkonce_odr hidden void @_ZN11ast_manager7inc_refEP3ast(ptr noundef nonnull align 8 dereferenceable(976) %0, ptr noundef %1) #4 comdat align 2 {
  %3 = alloca ptr, align 8
  %4 = alloca ptr, align 8
  store ptr %0, ptr %3, align 8, !tbaa !95
  store ptr %1, ptr %4, align 8, !tbaa !182
  %5 = load ptr, ptr %4, align 8, !tbaa !182
  %6 = icmp ne ptr %5, null
  br i1 %6, label %7, label %9

7:                                                ; preds = %2
  %8 = load ptr, ptr %4, align 8, !tbaa !182
  call void @_ZN3ast7inc_refEv(ptr noundef nonnull align 4 dereferenceable(16) %8)
  br label %9

9:                                                ; preds = %7, %2
  ret void
}

; Function Attrs: mustprogress uwtable
define linkonce_odr hidden noundef nonnull align 8 dereferenceable(441) ptr @_ZNK10arith_util6pluginEv(ptr noundef nonnull align 8 dereferenceable(16) %0) #4 comdat align 2 {
  %2 = alloca ptr, align 8
  store ptr %0, ptr %2, align 8, !tbaa !152
  %3 = load ptr, ptr %2, align 8
  %4 = getelementptr inbounds nuw %class.arith_util, ptr %3, i32 0, i32 1
  %5 = load ptr, ptr %4, align 8, !tbaa !460
  %6 = icmp ne ptr %5, null
  br i1 %6, label %8, label %7

7:                                                ; preds = %1
  call void @_ZN10arith_util11init_pluginEv(ptr noundef nonnull align 8 dereferenceable(16) %3)
  br label %8

8:                                                ; preds = %7, %1
  %9 = getelementptr inbounds nuw %class.arith_util, ptr %3, i32 0, i32 1
  %10 = load ptr, ptr %9, align 8, !tbaa !460
  ret ptr %10
}

; Function Attrs: mustprogress uwtable
define linkonce_odr hidden void @_ZN7obj_refI4expr11ast_managerE7inc_refEv(ptr noundef nonnull align 8 dereferenceable(16) %0) #4 comdat align 2 {
  %2 = alloca ptr, align 8
  store ptr %0, ptr %2, align 8, !tbaa !137
  %3 = load ptr, ptr %2, align 8
  %4 = getelementptr inbounds nuw %class.obj_ref, ptr %3, i32 0, i32 0
  %5 = load ptr, ptr %4, align 8, !tbaa !139
  %6 = icmp ne ptr %5, null
  br i1 %6, label %7, label %12

7:                                                ; preds = %1
  %8 = getelementptr inbounds nuw %class.obj_ref, ptr %3, i32 0, i32 1
  %9 = load ptr, ptr %8, align 8, !tbaa !523
  %10 = getelementptr inbounds nuw %class.obj_ref, ptr %3, i32 0, i32 0
  %11 = load ptr, ptr %10, align 8, !tbaa !139
  call void @_ZN11ast_manager7inc_refEP3ast(ptr noundef nonnull align 8 dereferenceable(976) %9, ptr noundef %11)
  br label %12

12:                                               ; preds = %7, %1
  ret void
}

; Function Attrs: mustprogress uwtable
define linkonce_odr hidden noundef ptr @_ZNK10arith_util10mk_numeralERK8rationalb(ptr noundef nonnull align 8 dereferenceable(16) %0, ptr noundef nonnull align 8 dereferenceable(32) %1, i1 noundef zeroext %2) #4 comdat align 2 {
  %4 = alloca ptr, align 8
  %5 = alloca ptr, align 8
  %6 = alloca i8, align 1
  store ptr %0, ptr %4, align 8, !tbaa !152
  store ptr %1, ptr %5, align 8, !tbaa !146
  %7 = zext i1 %2 to i8
  store i8 %7, ptr %6, align 1, !tbaa !166
  %8 = load ptr, ptr %4, align 8
  %9 = call noundef nonnull align 8 dereferenceable(441) ptr @_ZNK10arith_util6pluginEv(ptr noundef nonnull align 8 dereferenceable(16) %8)
  %10 = load ptr, ptr %5, align 8, !tbaa !146
  %11 = load i8, ptr %6, align 1, !tbaa !166, !range !167, !noundef !168
  %12 = trunc i8 %11 to i1
  %13 = call noundef ptr @_ZN17arith_decl_plugin10mk_numeralERK8rationalb(ptr noundef nonnull align 8 dereferenceable(441) %9, ptr noundef nonnull align 8 dereferenceable(32) %10, i1 noundef zeroext %12)
  ret ptr %13
}

; Function Attrs: mustprogress nounwind uwtable
define linkonce_odr hidden noundef ptr @_ZNK7obj_refI4expr11ast_managerEcvPS0_Ev(ptr noundef nonnull align 8 dereferenceable(16) %0) #5 comdat align 2 {
  %2 = alloca ptr, align 8
  store ptr %0, ptr %2, align 8, !tbaa !137
  %3 = load ptr, ptr %2, align 8
  %4 = getelementptr inbounds nuw %class.obj_ref, ptr %3, i32 0, i32 0
  %5 = load ptr, ptr %4, align 8, !tbaa !139
  ret ptr %5
}

; Function Attrs: mustprogress uwtable
define linkonce_odr hidden void @_ZN7obj_refI4expr11ast_managerEC2EPS0_RS1_(ptr noundef nonnull align 8 dereferenceable(16) %0, ptr noundef %1, ptr noundef nonnull align 8 dereferenceable(976) %2) unnamed_addr #4 comdat align 2 {
  %4 = alloca ptr, align 8
  %5 = alloca ptr, align 8
  %6 = alloca ptr, align 8
  store ptr %0, ptr %4, align 8, !tbaa !137
  store ptr %1, ptr %5, align 8, !tbaa !128
  store ptr %2, ptr %6, align 8, !tbaa !95
  %7 = load ptr, ptr %4, align 8
  %8 = getelementptr inbounds nuw %class.obj_ref, ptr %7, i32 0, i32 0
  %9 = load ptr, ptr %5, align 8, !tbaa !128
  store ptr %9, ptr %8, align 8, !tbaa !139
  %10 = getelementptr inbounds nuw %class.obj_ref, ptr %7, i32 0, i32 1
  %11 = load ptr, ptr %6, align 8, !tbaa !95
  store ptr %11, ptr %10, align 8, !tbaa !95
  call void @_ZN7obj_refI4expr11ast_managerE7inc_refEv(ptr noundef nonnull align 8 dereferenceable(16) %7)
  ret void
}

; Function Attrs: mustprogress uwtable
define linkonce_odr hidden noundef ptr @_ZN10arith_util6mk_intERK8rational(ptr noundef nonnull align 8 dereferenceable(16) %0, ptr noundef nonnull align 8 dereferenceable(32) %1) #4 comdat align 2 {
  %3 = alloca ptr, align 8
  %4 = alloca ptr, align 8
  store ptr %0, ptr %3, align 8, !tbaa !152
  store ptr %1, ptr %4, align 8, !tbaa !146
  %5 = load ptr, ptr %3, align 8
  %6 = load ptr, ptr %4, align 8, !tbaa !146
  %7 = call noundef ptr @_ZNK10arith_util10mk_numeralERK8rationalb(ptr noundef nonnull align 8 dereferenceable(16) %5, ptr noundef nonnull align 8 dereferenceable(32) %6, i1 noundef zeroext true)
  ret ptr %7
}

; Function Attrs: mustprogress uwtable
define hidden noundef zeroext i1 @_ZN3sls10seq_plugin6updateEP4exprRK8rational(ptr noundef nonnull align 8 dereferenceable(768) %0, ptr noundef %1, ptr noundef nonnull align 8 dereferenceable(32) %2) #4 align 2 personality ptr @__gxx_personality_v0 {
  %4 = alloca ptr, align 8
  %5 = alloca ptr, align 8
  %6 = alloca ptr, align 8
  %7 = alloca %class.obj_ref, align 8
  %8 = alloca ptr, align 8
  %9 = alloca i32, align 4
  store ptr %0, ptr %4, align 8, !tbaa !3
  store ptr %1, ptr %5, align 8, !tbaa !128
  store ptr %2, ptr %6, align 8, !tbaa !146
  %10 = load ptr, ptr %4, align 8
  call void @llvm.lifetime.start.p0(i64 16, ptr %7) #3
  %11 = getelementptr inbounds nuw %"class.sls::seq_plugin", ptr %10, i32 0, i32 2
  %12 = load ptr, ptr %6, align 8, !tbaa !146
  %13 = call noundef ptr @_ZN10arith_util6mk_intERK8rational(ptr noundef nonnull align 8 dereferenceable(16) %11, ptr noundef nonnull align 8 dereferenceable(32) %12)
  %14 = getelementptr inbounds nuw %"class.sls::plugin", ptr %10, i32 0, i32 2
  %15 = load ptr, ptr %14, align 8, !tbaa !134
  call void @_ZN7obj_refI4expr11ast_managerEC2EPS0_RS1_(ptr noundef nonnull align 8 dereferenceable(16) %7, ptr noundef %13, ptr noundef nonnull align 8 dereferenceable(976) %15)
  %16 = getelementptr inbounds nuw %"class.sls::plugin", ptr %10, i32 0, i32 1
  %17 = load ptr, ptr %16, align 8, !tbaa !127
  %18 = load ptr, ptr %5, align 8, !tbaa !128
  %19 = invoke noundef ptr @_ZNK7obj_refI4expr11ast_managerEcvPS0_Ev(ptr noundef nonnull align 8 dereferenceable(16) %7)
          to label %20 unwind label %23

20:                                               ; preds = %3
  %21 = invoke noundef zeroext i1 @_ZN3sls7context9set_valueEP4exprS2_(ptr noundef nonnull align 8 dereferenceable(321) %17, ptr noundef %18, ptr noundef %19)
          to label %22 unwind label %23

22:                                               ; preds = %20
  call void @_ZN7obj_refI4expr11ast_managerED2Ev(ptr noundef nonnull align 8 dereferenceable(16) %7) #3
  call void @llvm.lifetime.end.p0(i64 16, ptr %7) #3
  ret i1 %21

23:                                               ; preds = %20, %3
  %24 = landingpad { ptr, i32 }
          cleanup
  %25 = extractvalue { ptr, i32 } %24, 0
  store ptr %25, ptr %8, align 8
  %26 = extractvalue { ptr, i32 } %24, 1
  store i32 %26, ptr %9, align 4
  call void @_ZN7obj_refI4expr11ast_managerED2Ev(ptr noundef nonnull align 8 dereferenceable(16) %7) #3
  call void @llvm.lifetime.end.p0(i64 16, ptr %7) #3
  br label %27

27:                                               ; preds = %23
  %28 = load ptr, ptr %8, align 8
  %29 = load i32, ptr %9, align 4
  %30 = insertvalue { ptr, i32 } poison, ptr %28, 0
  %31 = insertvalue { ptr, i32 } %30, i32 %29, 1
  resume { ptr, i32 } %31
}