; Function Attrs: mustprogress uwtable
define hidden noundef zeroext i1 @_ZN3sls10seq_plugin6updateEP4exprRK8rational(ptr noundef nonnull align 8 dereferenceable(768) %0, ptr noundef %1, ptr noundef nonnull align 8 dereferenceable(32) %2) local_unnamed_addr #3 align 2 personality ptr @__gxx_personality_v0 {
  %4 = alloca %class.obj_ref, align 8
  call void @llvm.lifetime.start.p0(i64 16, ptr nonnull %4) #25
  %5 = getelementptr inbounds nuw i8, ptr %0, i64 176
  %6 = load ptr, ptr %5, align 8, !tbaa !195
  %.not.i.i.i = icmp eq ptr %6, null
  br i1 %.not.i.i.i, label %7, label %_ZN10arith_util6mk_intERK8rational.exit

7:                                                ; preds = %3
  %8 = getelementptr inbounds nuw i8, ptr %0, i64 168
  tail call void @_ZN10arith_util11init_pluginEv(ptr noundef nonnull align 8 dereferenceable(16) %8)
  %.pre.i.i.i = load ptr, ptr %5, align 8, !tbaa !195
  br label %_ZN10arith_util6mk_intERK8rational.exit

_ZN10arith_util6mk_intERK8rational.exit:          ; preds = %3, %7
  %9 = phi ptr [ %.pre.i.i.i, %7 ], [ %6, %3 ]
  %10 = tail call noundef ptr @_ZN17arith_decl_plugin10mk_numeralERK8rationalb(ptr noundef nonnull align 8 dereferenceable(441) %9, ptr noundef nonnull align 8 dereferenceable(32) %2, i1 noundef zeroext true)
  %11 = getelementptr inbounds nuw i8, ptr %0, i64 16
  %12 = load ptr, ptr %11, align 8, !tbaa !175
  store ptr %10, ptr %4, align 8, !tbaa !176
  %13 = getelementptr inbounds nuw i8, ptr %4, i64 8
  store ptr %12, ptr %13, align 8, !tbaa !46
  %.not.i.i = icmp eq ptr %10, null
  br i1 %.not.i.i, label %_ZN7obj_refI4expr11ast_managerEC2EPS0_RS1_.exit, label %_ZN11ast_manager7inc_refEP3ast.exit.i.i

_ZN11ast_manager7inc_refEP3ast.exit.i.i:          ; preds = %_ZN10arith_util6mk_intERK8rational.exit
  %14 = getelementptr inbounds nuw i8, ptr %10, i64 8
  %15 = load i32, ptr %14, align 4, !tbaa !146
  %16 = add i32 %15, 1
  store i32 %16, ptr %14, align 4, !tbaa !146
  br label %_ZN7obj_refI4expr11ast_managerEC2EPS0_RS1_.exit

_ZN7obj_refI4expr11ast_managerEC2EPS0_RS1_.exit:  ; preds = %_ZN10arith_util6mk_intERK8rational.exit, %_ZN11ast_manager7inc_refEP3ast.exit.i.i
  %17 = getelementptr inbounds nuw i8, ptr %0, i64 8
  %18 = load ptr, ptr %17, align 8, !tbaa !150
  %19 = invoke noundef zeroext i1 @_ZN3sls7context9set_valueEP4exprS2_(ptr noundef nonnull align 8 dereferenceable(321) %18, ptr noundef %1, ptr noundef %10)
          to label %20 unwind label %30

20:                                               ; preds = %_ZN7obj_refI4expr11ast_managerEC2EPS0_RS1_.exit
  br i1 %.not.i.i, label %_ZN7obj_refI4expr11ast_managerED2Ev.exit, label %21

21:                                               ; preds = %20
  %22 = getelementptr inbounds nuw i8, ptr %10, i64 8
  %23 = load i32, ptr %22, align 4, !tbaa !146
  %24 = add i32 %23, -1
  store i32 %24, ptr %22, align 4, !tbaa !146
  %25 = icmp eq i32 %24, 0
  br i1 %25, label %26, label %_ZN7obj_refI4expr11ast_managerED2Ev.exit

26:                                               ; preds = %21
  invoke void @_ZN11ast_manager11delete_nodeEP3ast(ptr noundef nonnull align 8 dereferenceable(976) %12, ptr noundef nonnull %10)
          to label %_ZN7obj_refI4expr11ast_managerED2Ev.exit unwind label %27

27:                                               ; preds = %26
  %28 = landingpad { ptr, i32 }
          catch ptr null
  %29 = extractvalue { ptr, i32 } %28, 0
  tail call void @__clang_call_terminate(ptr %29) #26
  unreachable

_ZN7obj_refI4expr11ast_managerED2Ev.exit:         ; preds = %20, %21, %26
  call void @llvm.lifetime.end.p0(i64 16, ptr nonnull %4) #25
  ret i1 %19

30:                                               ; preds = %_ZN7obj_refI4expr11ast_managerEC2EPS0_RS1_.exit
  %31 = landingpad { ptr, i32 }
          cleanup
  call void @_ZN7obj_refI4expr11ast_managerED2Ev(ptr noundef nonnull align 8 dereferenceable(16) %4) #25
  call void @llvm.lifetime.end.p0(i64 16, ptr nonnull %4) #25
  resume { ptr, i32 } %31
}